(lp0
(V020685084850
p1
VUPC_A
p2
tp3
a(V044000031152
p4
VUPC_A
p5
tp6
a(V044000033590
p7
VUPC_A
p8
tp9
a(V044000033279
p10
VUPC_A
p11
tp12
a(V030100058014
p13
VUPC_A
p14
tp15
a(V030100271949
p16
VUPC_A
p17
tp18
a(V014100077138
p19
VUPC_A
p20
tp21
a(V014100074779
p22
VUPC_A
p23
tp24
a(V014100074779
p25
VUPC_A
p26
tp27
a(V1143471834008
p28
VEAN_13
p29
tp30
a(V073490153303
p31
VUPC_A
p32
tp33
a(V036800049796
p34
VUPC_A
p35
tp36
a(V028196
p37
VITF
p38
tp39
a(V753182257297
p40
VUPC_A
p41
tp42
a(V092819250400
p43
VUPC_A
p44
tp45
a(V737628025602
p46
VUPC_A
p47
tp48
a(V765667100301
p49
VUPC_A
p50
tp51
a(V041331024853
p52
VUPC_A
p53
tp54
a(V014100071112
p55
VUPC_A
p56
tp57
a(V17117229
p58
VUPC_E
p59
tp60
a(V072878283120
p61
VUPC_A
p62
tp63
a(V024000305705
p64
VUPC_A
p65
tp66
a(V044700069592
p67
VUPC_A
p68
tp69
a(V711381000045
p70
VUPC_A
p71
tp72
a(V711381310717
p73
VUPC_A
p74
tp75
a(V711381000090
p76
VUPC_A
p77
tp78
a(V785357008052
p79
VUPC_A
p80
tp81
a(V071518000455
p82
VUPC_A
p83
tp84
a(V078913170479
p85
VUPC_A
p86
tp87
a(V611443340310
p88
VUPC_A
p89
tp90
a(V015300200012
p91
VUPC_A
p92
tp93
a(V059474
p94
VITF
p95
tp96
a(V678523070338
p97
VUPC_A
p98
tp99
a(V855407004003
p100
VUPC_A
p101
tp102
a(V810757010043
p103
VUPC_A
p104
tp105
a(V853522000801
p106
VUPC_A
p107
tp108
a(V835228006011
p109
VUPC_A
p110
tp111
a(V071012075034
p112
VUPC_A
p113
tp114
a(V07109214
p115
VUPC_E
p116
tp117
a(V093709301400
p118
VUPC_A
p119
tp120
a(V041224182202
p121
VUPC_A
p122
tp123
a(V051500280034
p124
VUPC_A
p125
tp126
a(V678523010501
p127
VUPC_A
p128
tp129
a(V853522000191
p130
VUPC_A
p131
tp132
a(V816979010045
p133
VUPC_A
p134
tp135
a(V897519001006
p136
VUPC_A
p137
tp138
a(V070200230064
p139
VUPC_A
p140
tp141
a(V74900114
p142
VEAN_8
p143
tp144
a(V248772804994
p145
VUPC_A
p146
tp147
a(V897463001015
p148
VUPC_A
p149
tp150
a(V736547334642
p151
VUPC_A
p152
tp153
a(V749084011211
p154
VUPC_A
p155
tp156
a.